target datalayout = "e-m:e-p270:32:32-p271:32:32-p272:64:64-i64:64-i128:128-f80:128-n8:16:32:64-S128"
target triple = "x86_64-pc-linux-gnu"

%struct.rb_block = type { %union.anon.12, i32 }
%union.anon.12 = type { %struct.rb_captured_block }
%struct.rb_captured_block = type { i64, ptr, %union.anon.13 }
%union.anon.13 = type { ptr }
%struct.rb_binding_t = type { %struct.rb_block, i64, i32 }

; Function Attrs: nounwind sspstrong uwtable
define internal void @block_mark_and_move(ptr noundef %0) #0 {
  %2 = alloca ptr, align 8
  %3 = alloca ptr, align 8
  store ptr %0, ptr %2, align 8, !tbaa !48
  %4 = load ptr, ptr %2, align 8, !tbaa !48
  %5 = getelementptr inbounds nuw %struct.rb_block, ptr %4, i32 0, i32 1
  %6 = load i32, ptr %5, align 8, !tbaa !55
  switch i32 %6, label %30 [
    i32 0, label %7
    i32 1, label %7
    i32 2, label %24
    i32 3, label %27
  ]

7:                                                ; preds = %1, %1
  call void @llvm.lifetime.start.p0(i64 8, ptr %3) #25
  %8 = load ptr, ptr %2, align 8, !tbaa !48
  %9 = getelementptr inbounds nuw %struct.rb_block, ptr %8, i32 0, i32 0
  store ptr %9, ptr %3, align 8, !tbaa !137
  %10 = load ptr, ptr %3, align 8, !tbaa !137
  %11 = getelementptr inbounds nuw %struct.rb_captured_block, ptr %10, i32 0, i32 0
  call void @rb_gc_mark_and_move(ptr noundef %11)
  %12 = load ptr, ptr %3, align 8, !tbaa !137
  %13 = getelementptr inbounds nuw %struct.rb_captured_block, ptr %12, i32 0, i32 2
  call void @rb_gc_mark_and_move(ptr noundef %13)
  %14 = load ptr, ptr %3, align 8, !tbaa !137
  %15 = getelementptr inbounds nuw %struct.rb_captured_block, ptr %14, i32 0, i32 1
  %16 = load ptr, ptr %15, align 8, !tbaa !139
  %17 = icmp ne ptr %16, null
  br i1 %17, label %18, label %23

18:                                               ; preds = %7
  %19 = load ptr, ptr %3, align 8, !tbaa !137
  %20 = getelementptr inbounds nuw %struct.rb_captured_block, ptr %19, i32 0, i32 1
  %21 = load ptr, ptr %20, align 8, !tbaa !139
  %22 = getelementptr i64, ptr %21, i64 1
  call void @rb_gc_mark_and_move(ptr noundef %22)
  br label %23

23:                                               ; preds = %18, %7
  call void @llvm.lifetime.end.p0(i64 8, ptr %3) #25
  br label %30

24:                                               ; preds = %1
  %25 = load ptr, ptr %2, align 8, !tbaa !48
  %26 = getelementptr inbounds nuw %struct.rb_block, ptr %25, i32 0, i32 0
  call void @rb_gc_mark_and_move(ptr noundef %26)
  br label %30

27:                                               ; preds = %1
  %28 = load ptr, ptr %2, align 8, !tbaa !48
  %29 = getelementptr inbounds nuw %struct.rb_block, ptr %28, i32 0, i32 0
  call void @rb_gc_mark_and_move(ptr noundef %29)
  br label %30

30:                                               ; preds = %1, %27, %24, %23
  ret void
}

; Function Attrs: nounwind sspstrong uwtable
define internal void @binding_mark_and_move(ptr noundef %0) #0 {
  %2 = alloca ptr, align 8
  %3 = alloca ptr, align 8
  store ptr %0, ptr %2, align 8, !tbaa !11
  call void @llvm.lifetime.start.p0(i64 8, ptr %3) #25
  %4 = load ptr, ptr %2, align 8, !tbaa !11
  store ptr %4, ptr %3, align 8, !tbaa !11
  %5 = load ptr, ptr %3, align 8, !tbaa !11
  %6 = getelementptr inbounds nuw %struct.rb_binding_t, ptr %5, i32 0, i32 0
  call void @block_mark_and_move(ptr noundef %6)
  %7 = load ptr, ptr %3, align 8, !tbaa !11
  %8 = getelementptr inbounds nuw %struct.rb_binding_t, ptr %7, i32 0, i32 1
  call void @rb_gc_mark_and_move(ptr noundef %8)
  call void @llvm.lifetime.end.p0(i64 8, ptr %3) #25
  ret void
}