; Function Attrs: nounwind sspstrong uwtable
define internal void @binding_mark_and_move(ptr noundef %0) #0 {
  %2 = getelementptr inbounds nuw i8, ptr %0, i64 24
  %3 = load i32, ptr %2, align 8, !tbaa !14
  switch i32 %3, label %block_mark_and_move.exit [
    i32 0, label %4
    i32 1, label %4
    i32 2, label %.sink.split.i
    i32 3, label %.sink.split.i
  ]

4:                                                ; preds = %1, %1
  tail call void @rb_gc_mark_and_move(ptr noundef nonnull %0) #21
  %5 = getelementptr inbounds nuw i8, ptr %0, i64 16
  tail call void @rb_gc_mark_and_move(ptr noundef nonnull %5) #21
  %6 = getelementptr inbounds nuw i8, ptr %0, i64 8
  %7 = load ptr, ptr %6, align 8, !tbaa !17
  %.not.i = icmp eq ptr %7, null
  br i1 %.not.i, label %block_mark_and_move.exit, label %8

8:                                                ; preds = %4
  %9 = getelementptr i8, ptr %7, i64 8
  br label %.sink.split.i

.sink.split.i:                                    ; preds = %8, %1, %1
  %.sink.i = phi ptr [ %9, %8 ], [ %0, %1 ], [ %0, %1 ]
  tail call void @rb_gc_mark_and_move(ptr noundef %.sink.i) #21
  br label %block_mark_and_move.exit

block_mark_and_move.exit:                         ; preds = %1, %4, %.sink.split.i
  %10 = getelementptr inbounds nuw i8, ptr %0, i64 32
  tail call void @rb_gc_mark_and_move(ptr noundef nonnull %10) #21
  ret void
}